; Function Attrs: nounwind sspstrong uwtable
define dso_local void @ide_set_inactive(ptr noundef readonly captures(none) %s, i1 noundef zeroext %more) local_unnamed_addr #0 {
entry:
  %0 = load ptr, ptr %s, align 8
  %dma = getelementptr inbounds nuw i8, ptr %0, i64 2120
  %1 = load ptr, ptr %dma, align 8
  %aiocb = getelementptr inbounds nuw i8, ptr %1, i64 48
  store ptr null, ptr %aiocb, align 8
  %2 = load ptr, ptr %s, align 8
  %retry_unit.i = getelementptr inbounds nuw i8, ptr %2, i64 2148
  store i8 -1, ptr %retry_unit.i, align 4
  %3 = load ptr, ptr %s, align 8
  %retry_sector_num.i = getelementptr inbounds nuw i8, ptr %3, i64 2152
  store i64 0, ptr %retry_sector_num.i, align 8
  %4 = load ptr, ptr %s, align 8
  %retry_nsector.i = getelementptr inbounds nuw i8, ptr %4, i64 2160
  store i32 0, ptr %retry_nsector.i, align 8
  %5 = load ptr, ptr %s, align 8
  %dma2 = getelementptr inbounds nuw i8, ptr %5, i64 2120
  %6 = load ptr, ptr %dma2, align 8
  %7 = load ptr, ptr %6, align 8
  %set_inactive = getelementptr inbounds nuw i8, ptr %7, i64 56
  %8 = load ptr, ptr %set_inactive, align 8
  %tobool.not = icmp eq ptr %8, null
  br i1 %tobool.not, label %if.end, label %if.then

if.then:                                          ; preds = %entry
  tail call void %8(ptr noundef nonnull %6, i1 noundef zeroext %more) #17
  %s.val.pre = load ptr, ptr %s, align 8
  %.phi.trans.insert = getelementptr i8, ptr %s.val.pre, i64 2120
  %s.val.val.pre = load ptr, ptr %.phi.trans.insert, align 8
  %.pre = load ptr, ptr %s.val.val.pre, align 8
  br label %if.end

if.end:                                           ; preds = %if.then, %entry
  %9 = phi ptr [ %.pre, %if.then ], [ %7, %entry ]
  %s.val.val = phi ptr [ %s.val.val.pre, %if.then ], [ %6, %entry ]
  %cmd_done.i = getelementptr inbounds nuw i8, ptr %9, i64 64
  %10 = load ptr, ptr %cmd_done.i, align 8
  %tobool.not.i = icmp eq ptr %10, null
  br i1 %tobool.not.i, label %ide_cmd_done.exit, label %if.then.i

if.then.i:                                        ; preds = %if.end
  tail call void %10(ptr noundef nonnull %s.val.val) #17
  br label %ide_cmd_done.exit

ide_cmd_done.exit:                                ; preds = %if.end, %if.then.i
  ret void
}